; Function Attrs: nounwind uwtable
define range(i32 0, 2) i32 @X509_NAME_ENTRY_set_object(ptr noundef captures(address_is_null) %0, ptr noundef %1) local_unnamed_addr #0 {
  %3 = icmp eq ptr %0, null
  %4 = icmp eq ptr %1, null
  %or.cond = or i1 %3, %4
  br i1 %or.cond, label %5, label %6

5:                                                ; preds = %2
  tail call void @ERR_new() #6
  tail call void @ERR_set_debug(ptr noundef nonnull @.str, i32 noundef 309, ptr noundef nonnull @__func__.X509_NAME_ENTRY_set_object) #6
  tail call void (i32, i32, ptr, ...) @ERR_set_error(i32 noundef 11, i32 noundef 786690, ptr noundef null) #6
  br label %11

6:                                                ; preds = %2
  %7 = load ptr, ptr %0, align 8, !tbaa !12
  tail call void @ASN1_OBJECT_free(ptr noundef %7) #6
  %8 = tail call ptr @OBJ_dup(ptr noundef nonnull %1) #6
  store ptr %8, ptr %0, align 8, !tbaa !12
  %9 = icmp ne ptr %8, null
  %10 = zext i1 %9 to i32
  br label %11

11:                                               ; preds = %6, %5
  %.0 = phi i32 [ 0, %5 ], [ %10, %6 ]
  ret i32 %.0
}